ccopy_reg
_reconstructor
p1
(ccloudinit.sources.DataSourceEc2
DataSourceEc2
p2
c__builtin__
object
p3
NtRp4
(dp5
S'paths'
p6
g1
(ccloudinit.helpers
Paths
p7
g3
NtRp8
(dp9
S'run_dir'
p10
S'/run/cloud-init'
p11
sS'lookups'
p12
(dp13
S'cloud_config'
p14
S'cloud-config.txt'
p15
sS'vendor_scripts'
p16
S'scripts/vendor'
p17
sS'warnings'
p18
g18
sS'userdata'
p19
S'user-data.txt.i'
p20
sS'handlers'
p21
g21
sS'obj_pkl'
p22
S'obj.pkl'
p23
sS'userdata_raw'
p24
S'user-data.txt'
p25
sS'vendordata_raw'
p26
S'vendor-data.txt'
p27
sS'boothooks'
p28
g28
sS'instance_id'
p29
S'.instance-id'
p30
sS'vendordata'
p31
S'vendor-data.txt.i'
p32
sS'vendor_cloud_config'
p33
S'vendor-cloud-config.txt'
p34
sS'scripts'
p35
g35
sS'sem'
p36
g36
sS'data'
p37
g37
sS'manual_clean_marker'
p38
S'manual-clean'
p39
ssS'template_tpl'
p40
S'/etc/cloud/templates/%s.tmpl'
p41
sS'cfgs'
p42
(dp43
S'cloud_dir'
p44
S'/var/lib/cloud'
p45
sS'templates_dir'
p46
S'/etc/cloud/templates'
p47
ssS'cloud_dir'
p48
g45
sS'datasource'
p49
NsS'upstart_conf_d'
p50
NsS'boot_finished'
p51
S'/var/lib/cloud/instance/boot-finished'
p52
sS'instance_link'
p53
S'/var/lib/cloud/instance'
p54
sS'seed_dir'
p55
S'/var/lib/cloud/seed'
p56
sbsS'metadata_address'
p57
S'http://169.254.169.254'
p58
sS'_cloud_platform'
p59
S'AWS'
p60
sS'_network_config'
p61
(dp62
S'version'
p63
I1
sS'config'
p64
(lp65
(dp66
S'subnets'
p67
(lp68
(dp69
S'type'
p70
S'dhcp4'
p71
sasg70
S'physical'
p72
sS'name'
p73
S'eth0'
p74
sS'mac_address'
p75
S'0e:1d:cc:fd:b0:6c'
p76
sassS'sys_cfg'
p77
(dp78
S'paths'
p79
(dp80
S'cloud_dir'
p81
S'/var/lib/cloud'
p82
sS'templates_dir'
p83
S'/etc/cloud/templates'
p84
ssS'network'
p85
(dp86
S'renderers'
p87
NssS'ssh_svcname'
p88
S'sshd'
p89
sS'distro_short'
p90
S'amzn'
p91
sS'default_user'
p92
(dp93
S'shell'
p94
S'/bin/bash'
p95
sS'name'
p96
S'ec2-user'
p97
sS'sudo'
p98
(lp99
S'ALL=(ALL) NOPASSWD:ALL'
p100
asS'lock_passwd'
p101
I01
sS'gecos'
p102
S'EC2 Default User'
p103
sS'groups'
p104
(lp105
S'wheel'
p106
aS'adm'
p107
aS'systemd-journal'
p108
asssg19
(iemail.mime.multipart
MIMEMultipart
p109
(dp110
S'_headers'
p111
(lp112
(S'Content-Type'
p113
S'multipart/mixed; boundary="===============0179562745351815456=="'
tp114
a(S'MIME-Version'
p115
S'1.0'
p116
tp117
a(S'Number-Attachments'
p118
S'1'
tp119
a(g118
S'1'
tp120
asS'_payload'
p121
(lp122
(iemail.mime.base
MIMEBase
p123
(dp124
g111
(lp125
(g115
g116
tp126
a(S'Content-Type'
p127
S'text/x-shellscript'
p128
tp129
a(S'Content-Disposition'
p130
S'attachment; filename="part-001"'
tp131
asg121
S'#!/bin/bash\n\nyum-config-manager --setopt=gpgcheck=0 --save\nyum-config-manager --add-repo http://yum.knack.works/puppet/7\nyum-config-manager --add-repo http://yum.knack.works/epel/7/x86_64\n\nyum -y update\nyum -y install puppet\nyum -y install rubygem-deep_merge\n\n/usr/bin/puppet config set --section \'main\' \'parser\' \'future\'\n/usr/bin/puppet config set --section \'main\' \'stringify_facts\' \'false\'\n/usr/bin/puppet config set --section \'main\' \'trusted_node_data\' \'true\'\n/usr/bin/puppet config set --section \'main\' \'ordering\' \'manifest\'\n\n/usr/bin/puppet module install puppetlabs-stdlib\n\ncat > /etc/puppet/hiera.yaml << EOF\n---\n\n:backends:\n    - yaml\n\n:merge_behavior: \'deeper\'\n\n:hierarchy:\n    - "nodes/%{clientcert}"\n    - "defaults"\n\n:yaml:\n    :datadir:\nEOF\n\ncat > /var/lib/hiera/defaults.yaml << EOF\n---\n\nprofiles: []\n\nvim::use_spaces: false\nEOF\n\nyum -y install git\n'
p132
sS'_charset'
p133
NsS'_default_type'
p134
S'text/plain'
p135
sS'preamble'
p136
NsS'defects'
p137
(lp138
sS'_unixfrom'
p139
NsS'epilogue'
p140
Nsbasg133
Nsg134
g135
sg136
Nsg137
(lp141
sg139
Nsg140
Nsbsg31
(iemail.mime.multipart
MIMEMultipart
p142
(dp143
g111
(lp144
(g113
S'multipart/mixed; boundary="===============2768142946825649114=="'
tp145
a(g115
g116
tp146
a(g118
S'1'
tp147
asg121
(lp148
(iemail.mime.base
MIMEBase
p149
(dp150
g111
(lp151
(g115
g116
tp152
a(g127
S'text/x-not-multipart'
tp153
a(g130
S'attachment; filename="part-001"'
tp154
asg121
S''
sg133
Nsg134
g135
sg136
Nsg137
(lp155
sg139
Nsg140
Nsbasg133
Nsg134
g135
sg136
Nsg137
(lp156
sg139
Nsg140
Nsbsg24
g132
sg26
NsS'_cloud_name'
p157
S'aws'
p158
sS'ud_proc'
p159
g1
(ccloudinit.user_data
UserDataProcessor
p160
g3
NtRp161
(dp162
g6
g8
sS'ssl_details'
p163
(dp164
sbsg55
S'/var/lib/cloud/seed/ec2'
p165
sS'ds_cfg'
p166
(dp167
sS'distro'
p168
g1
(ccloudinit.distros.amazon
Distro
p169
g3
NtRp170
(dp171
S'osfamily'
p172
S'redhat'
p173
sS'_paths'
p174
g1
(g7
g3
NtRp175
(dp176
g10
g11
sg12
(dp177
g14
g15
sg16
g17
sg18
g18
sg19
g20
sg21
g21
sg22
g23
sg24
g25
sg26
g27
sg28
g28
sg29
g30
sg31
g32
sg33
g34
sg35
g35
sg36
g36
sg37
g37
sg38
g39
ssg40
S'/etc/cloud/templates/%s.tmpl'
p178
sg42
(dp179
g81
g82
sg83
g84
ssg48
g82
sg49
g4
sg50
Nsg51
S'/var/lib/cloud/instance/boot-finished'
p180
sg53
S'/var/lib/cloud/instance'
p181
sg55
S'/var/lib/cloud/seed'
p182
sbsg73
S'amazon'
p183
sS'_runner'
p184
g1
(ccloudinit.helpers
Runners
p185
g3
NtRp186
(dp187
g6
g175
sS'sems'
p188
(dp189
sbsS'_cfg'
p190
g78
sbsS'_fallback_interface'
p191
g74
sS'identity'
p192
(dp193
VdevpayProductCodes
p194
NsVavailabilityZone
p195
Vus-east-1c
p196
sVinstanceId
p197
Vi-082616bd01ceec607
p198
sVpendingTime
p199
V2018-10-29T17:50:47Z
p200
sVmarketplaceProductCodes
p201
NsVregion
p202
Vus-east-1
p203
sVprivateIp
p204
V172.31.42.139
p205
sVversion
p206
V2017-09-30
p207
sVarchitecture
p208
Vx86_64
p209
sVbillingProducts
p210
NsVkernelId
p211
NsVramdiskId
p212
NsVimageId
p213
Vami-0922553b7b0369273
p214
sVinstanceType
p215
Vt3.small
p216
sVaccountId
p217
V114672925692
p218
ssS'metadata'
p219
(dp220
S'profile'
p221
S'default-hvm'
p222
sS'reservation-id'
p223
S'r-096e31a7f2bf68f5c'
p224
sS'hostname'
p225
S'ip-172-31-42-139.ec2.internal'
p226
sS'security-groups'
p227
S'default'
p228
sS'metrics'
p229
(dp230
S'vhostmd'
p231
S'<?xml version="1.0" encoding="UTF-8"?>'
p232
ssS'ami-manifest-path'
p233
S'(unknown)'
p234
sS'mac'
p235
S'0e:1d:cc:fd:b0:6c'
p236
sS'public-ipv4'
p237
S'54.162.197.83'
p238
sS'services'
p239
(dp240
S'domain'
p241
S'amazonaws.com'
p242
sS'partition'
p243
S'aws'
p244
ssS'instance-type'
p245
S't3.small'
p246
sS'instance-id'
p247
S'i-082616bd01ceec607'
p248
sS'local-ipv4'
p249
S'172.31.42.139'
p250
sS'local-hostname'
p251
S'ip-172-31-42-139.ec2.internal'
p252
sS'placement'
p253
(dp254
S'availability-zone'
p255
S'us-east-1c'
p256
ssS'network'
p257
(dp258
S'interfaces'
p259
(dp260
S'macs'
p261
(dp262
S'0e:1d:cc:fd:b0:6c'
p263
(dp264
S'local-hostname'
p265
S'ip-172-31-42-139.ec2.internal'
p266
sS'security-groups'
p267
S'default'
p268
sS'public-hostname'
p269
S'ec2-54-162-197-83.compute-1.amazonaws.com'
p270
sS'vpc-ipv4-cidr-blocks'
p271
S'172.31.0.0/16'
p272
sS'subnet-id'
p273
S'subnet-da187e80'
p274
sS'vpc-ipv4-cidr-block'
p275
S'172.31.0.0/16'
p276
sS'interface-id'
p277
S'eni-0a4d483213e5843bd'
p278
sS'mac'
p279
S'0e:1d:cc:fd:b0:6c'
p280
sS'security-group-ids'
p281
S'sg-77564f06'
p282
sS'public-ipv4s'
p283
S'54.162.197.83'
p284
sS'owner-id'
p285
S'114672925692'
p286
sS'subnet-ipv4-cidr-block'
p287
S'172.31.32.0/20'
p288
sS'vpc-id'
p289
S'vpc-8baad6f2'
p290
sS'local-ipv4s'
p291
S'172.31.42.139'
p292
sS'device-number'
p293
S'0'
sS'ipv4-associations'
p294
(dp295
S'54.162.197.83'
p296
S'172.31.42.139'
p297
ssssssS'ami-launch-index'
p298
S'0'
sS'public-hostname'
p299
S'ec2-54-162-197-83.compute-1.amazonaws.com'
p300
sS'public-keys'
p301
(dp302
S'aparsons'
p303
(lp304
S'ssh-rsa AAAAB3NzaC1yc2EAAAADAQABAAACAQC/8bbs0M1ME73TVVHPZP+zSRBi+3mktfhvL/GLD3Pjvr04KoxjM1fkI7q5Mpx0vLe/ht3rr4ia5m45wDb8/pTWADmHWm0KHTsCkF5a0MYZOJ5OSAQeMygmzXdmvFB6J9KdyV3Kw9P4+j7qpLA2laoHfj1UiV/0aYJ7vq4QvzQUu2HvfYVD3JOHSuNgkYpYqBgebyBxaDgyP+epqkh8riu1oKpyhNuu9CfZXk7O9e2nNwnPIvJCXLF5P2/9XGeDzNyJItpCY+X2eWDKGa+qf2kaVpzAlV4fNXnuKTx+TZKkX5p55KtV7rVX/iWd+Osj42Ny2uAt8ZtPRV+5uwL0KMx/7GzvSlEgDxsmU1UHXGtV4q05EpVgvHVm/iQTbFqpYBhC4U2ByApuK/bs4q3razSUDgeUuF6N+7HJazUtS4pG1GGesf4MAyvYRZ+R+GxZn+j77/6JNo4ydIFvuIzqopdhCpQYQiTkvF6am/Mpi/Bu/dXXSZ+HgsrFI8dZJRGIqtPYIbA8GbYj7GGM7f5x+iq2kKDof9LL5Z+UOBUw0L60iyDt/W/0W3iGROB7nMXj+B3M1lwbh8QhHrQdSfkayrOAaaJb428n2C/FJ9SvgcDhz6qDRWGqDdCgPyBPucG0plu4ZDFgQ+mz1NXhUiJQrHpVkaA0pMOMO1Hn5G4QhUxc+Q== aparsons'
p305
assS'ami-id'
p306
S'ami-0922553b7b0369273'
p307
sS'instance-action'
p308
S'none'
p309
sS'block-device-mapping'
p310
(dp311
S'ami'
p312
S'xvda'
p313
sS'root'
p314
S'/dev/xvda'
p315
sssb.